target datalayout = "e-m:e-p270:32:32-p271:32:32-p272:64:64-i64:64-i128:128-f80:128-n8:16:32:64-S128"
target triple = "x86_64-pc-linux-gnu"

%struct.LZ4F_CustomMem = type { ptr, ptr, ptr, ptr }
%struct.LZ4F_preferences_t = type { %struct.LZ4F_frameInfo_t, i32, i32, i32, [3 x i32] }
%struct.LZ4F_frameInfo_t = type { i32, i32, i32, i32, i64, i32, i32 }
%struct.LZ4F_cctx_s = type { %struct.LZ4F_CustomMem, %struct.LZ4F_preferences_t, i32, i32, ptr, i64, i64, ptr, ptr, i64, i64, %struct.XXH32_state_s, ptr, i16, i16, i32 }
%struct.XXH32_state_s = type { i32, i32, i32, i32, i32, i32, [4 x i32], i32, i32 }

@LZ4F_defaultCMem = internal constant %struct.LZ4F_CustomMem zeroinitializer, align 8

; Function Attrs: nounwind uwtable
define internal ptr @LZ4F_calloc(i64 noundef %0, ptr noundef byval(%struct.LZ4F_CustomMem) align 8 %1) #0 {
  %3 = alloca ptr, align 8
  %4 = alloca i64, align 8
  %5 = alloca ptr, align 8
  store i64 %0, ptr %4, align 8, !tbaa !3
  %6 = getelementptr inbounds nuw %struct.LZ4F_CustomMem, ptr %1, i32 0, i32 1
  %7 = load ptr, ptr %6, align 8, !tbaa !57
  %8 = icmp ne ptr %7, null
  br i1 %8, label %9, label %16

9:                                                ; preds = %2
  %10 = getelementptr inbounds nuw %struct.LZ4F_CustomMem, ptr %1, i32 0, i32 1
  %11 = load ptr, ptr %10, align 8, !tbaa !57
  %12 = getelementptr inbounds nuw %struct.LZ4F_CustomMem, ptr %1, i32 0, i32 3
  %13 = load ptr, ptr %12, align 8, !tbaa !48
  %14 = load i64, ptr %4, align 8, !tbaa !3
  %15 = call ptr %11(ptr noundef %13, i64 noundef %14)
  store ptr %15, ptr %3, align 8
  br label %37

16:                                               ; preds = %2
  %17 = getelementptr inbounds nuw %struct.LZ4F_CustomMem, ptr %1, i32 0, i32 0
  %18 = load ptr, ptr %17, align 8, !tbaa !56
  %19 = icmp eq ptr %18, null
  br i1 %19, label %20, label %23

20:                                               ; preds = %16
  %21 = load i64, ptr %4, align 8, !tbaa !3
  %22 = call noalias ptr @calloc(i64 noundef 1, i64 noundef %21) #10
  store ptr %22, ptr %3, align 8
  br label %37

23:                                               ; preds = %16
  call void @llvm.lifetime.start.p0(i64 8, ptr %5) #8
  %24 = getelementptr inbounds nuw %struct.LZ4F_CustomMem, ptr %1, i32 0, i32 0
  %25 = load ptr, ptr %24, align 8, !tbaa !56
  %26 = getelementptr inbounds nuw %struct.LZ4F_CustomMem, ptr %1, i32 0, i32 3
  %27 = load ptr, ptr %26, align 8, !tbaa !48
  %28 = load i64, ptr %4, align 8, !tbaa !3
  %29 = call ptr %25(ptr noundef %27, i64 noundef %28)
  store ptr %29, ptr %5, align 8, !tbaa !12
  %30 = load ptr, ptr %5, align 8, !tbaa !12
  %31 = icmp ne ptr %30, null
  br i1 %31, label %32, label %35

32:                                               ; preds = %23
  %33 = load ptr, ptr %5, align 8, !tbaa !12
  %34 = load i64, ptr %4, align 8, !tbaa !3
  call void @llvm.memset.p0.i64(ptr align 1 %33, i8 0, i64 %34, i1 false)
  br label %35

35:                                               ; preds = %32, %23
  %36 = load ptr, ptr %5, align 8, !tbaa !12
  store ptr %36, ptr %3, align 8
  call void @llvm.lifetime.end.p0(i64 8, ptr %5) #8
  br label %37

37:                                               ; preds = %35, %20, %9
  %38 = load ptr, ptr %3, align 8
  ret ptr %38
}

; Function Attrs: nounwind uwtable
define ptr @LZ4F_createCompressionContext_advanced(ptr noundef byval(%struct.LZ4F_CustomMem) align 8 %0, i32 noundef %1) #0 {
  %3 = alloca ptr, align 8
  %4 = alloca i32, align 4
  %5 = alloca ptr, align 8
  %6 = alloca i32, align 4
  store i32 %1, ptr %4, align 4, !tbaa !10
  call void @llvm.lifetime.start.p0(i64 8, ptr %5) #8
  %7 = call ptr @LZ4F_calloc(i64 noundef 216, ptr noundef byval(%struct.LZ4F_CustomMem) align 8 %0)
  store ptr %7, ptr %5, align 8, !tbaa !23
  %8 = load ptr, ptr %5, align 8, !tbaa !23
  %9 = icmp eq ptr %8, null
  br i1 %9, label %10, label %11

10:                                               ; preds = %2
  store ptr null, ptr %3, align 8
  store i32 1, ptr %6, align 4
  br label %20

11:                                               ; preds = %2
  %12 = load ptr, ptr %5, align 8, !tbaa !23
  %13 = getelementptr inbounds nuw %struct.LZ4F_cctx_s, ptr %12, i32 0, i32 0
  call void @llvm.memcpy.p0.p0.i64(ptr align 8 %13, ptr align 8 %0, i64 32, i1 false), !tbaa.struct !49
  %14 = load i32, ptr %4, align 4, !tbaa !10
  %15 = load ptr, ptr %5, align 8, !tbaa !23
  %16 = getelementptr inbounds nuw %struct.LZ4F_cctx_s, ptr %15, i32 0, i32 2
  store i32 %14, ptr %16, align 8, !tbaa !41
  %17 = load ptr, ptr %5, align 8, !tbaa !23
  %18 = getelementptr inbounds nuw %struct.LZ4F_cctx_s, ptr %17, i32 0, i32 3
  store i32 0, ptr %18, align 4, !tbaa !38
  %19 = load ptr, ptr %5, align 8, !tbaa !23
  store ptr %19, ptr %3, align 8
  store i32 1, ptr %6, align 4
  br label %20

20:                                               ; preds = %11, %10
  call void @llvm.lifetime.end.p0(i64 8, ptr %5) #8
  %21 = load ptr, ptr %3, align 8
  ret ptr %21
}

; Function Attrs: nounwind uwtable
define internal i64 @LZ4F_returnErrorCode(i32 noundef %0) #0 {
  %2 = alloca i32, align 4
  store i32 %0, ptr %2, align 4, !tbaa !10
  %3 = load i32, ptr %2, align 4, !tbaa !10
  %4 = zext i32 %3 to i64
  %5 = sub nsw i64 0, %4
  ret i64 %5
}

; Function Attrs: nounwind uwtable
define i64 @LZ4F_createCompressionContext(ptr noundef %0, i32 noundef %1) #0 {
  %3 = alloca i64, align 8
  %4 = alloca ptr, align 8
  %5 = alloca i32, align 4
  store ptr %0, ptr %4, align 8, !tbaa !58
  store i32 %1, ptr %5, align 4, !tbaa !10
  br label %6

6:                                                ; preds = %2
  %7 = load ptr, ptr %4, align 8, !tbaa !58
  %8 = icmp eq ptr %7, null
  br i1 %8, label %9, label %11

9:                                                ; preds = %6
  %10 = call i64 @LZ4F_returnErrorCode(i32 noundef 21)
  store i64 %10, ptr %3, align 8
  br label %24

11:                                               ; preds = %6
  br label %12

12:                                               ; preds = %11
  %13 = load i32, ptr %5, align 4, !tbaa !10
  %14 = call ptr @LZ4F_createCompressionContext_advanced(ptr noundef byval(%struct.LZ4F_CustomMem) align 8 @LZ4F_defaultCMem, i32 noundef %13)
  %15 = load ptr, ptr %4, align 8, !tbaa !58
  store ptr %14, ptr %15, align 8, !tbaa !23
  br label %16

16:                                               ; preds = %12
  %17 = load ptr, ptr %4, align 8, !tbaa !58
  %18 = load ptr, ptr %17, align 8, !tbaa !23
  %19 = icmp eq ptr %18, null
  br i1 %19, label %20, label %22

20:                                               ; preds = %16
  %21 = call i64 @LZ4F_returnErrorCode(i32 noundef 9)
  store i64 %21, ptr %3, align 8
  br label %24

22:                                               ; preds = %16
  br label %23

23:                                               ; preds = %22
  store i64 0, ptr %3, align 8
  br label %24

24:                                               ; preds = %23, %20, %9
  %25 = load i64, ptr %3, align 8
  ret i64 %25
}