; Function Attrs: mustprogress nofree nounwind willreturn memory(write, inaccessiblemem: readwrite) uwtable
define range(i64 -21, 1) i64 @LZ4F_createCompressionContext(ptr noundef writeonly captures(address_is_null) %0, i32 noundef %1) local_unnamed_addr #7 {
  %3 = icmp eq ptr %0, null
  br i1 %3, label %7, label %LZ4F_calloc.exit.i

LZ4F_calloc.exit.i:                               ; preds = %2
  %4 = tail call noalias dereferenceable_or_null(216) ptr @calloc(i64 noundef 1, i64 noundef 216) #15
  %5 = icmp eq ptr %4, null
  br i1 %5, label %.sink.split, label %LZ4F_createCompressionContext_advanced.exit

LZ4F_createCompressionContext_advanced.exit:      ; preds = %LZ4F_calloc.exit.i
  %6 = getelementptr inbounds nuw i8, ptr %4, i64 88
  store i32 %1, ptr %6, align 8, !tbaa !35
  br label %.sink.split

.sink.split:                                      ; preds = %LZ4F_calloc.exit.i, %LZ4F_createCompressionContext_advanced.exit
  %.sink = phi ptr [ %4, %LZ4F_createCompressionContext_advanced.exit ], [ null, %LZ4F_calloc.exit.i ]
  %.0.ph = phi i64 [ 0, %LZ4F_createCompressionContext_advanced.exit ], [ -9, %LZ4F_calloc.exit.i ]
  store ptr %.sink, ptr %0, align 8, !tbaa !50
  br label %7

7:                                                ; preds = %.sink.split, %2
  %.0 = phi i64 [ -21, %2 ], [ %.0.ph, %.sink.split ]
  ret i64 %.0
}